(lp0
(dp1
S'8factfootball'
p2
S'308772287'
p3
sS'officialasroma'
p4
S'1428837659'
p5
sS'robgunillustration'
p6
S'390209727'
p7
sS'toni.kr8s'
p8
S'1635861286'
p9
sS'didierdrogba'
p10
S'256358723'
p11
sS'garethbale11'
p12
S'246194371'
p13
sS'zidane'
p14
S'1412007771'
p15
sS'stevengerrard'
p16
S'1345521821'
p17
sS'mb459'
p18
S'1246537958'
p19
sS'instareplays'
p20
S'975441532'
p21
sS'filgoal1'
p22
S'568948193'
p23
sS'footballtransfersdaily'
p24
S'1427535452'
p25
sS'leomessi'
p26
S'427553890'
p27
sS'soccermemes'
p28
S'40243296'
p29
sS'beinsports'
p30
S'722118924'
p31
sS'we_love_football'
p32
S'225021109'
p33
sS'golazoweekly'
p34
S'1311129049'
p35
sS'manuelneuer'
p36
S'1732670974'
p37
sS'6secfootball'
p38
S'1566821036'
p39
sS'kingarturo23oficial'
p40
S'2110611464'
p41
sS'football.news'
p42
S'1905717906'
p43
sS'futbolsport'
p44
S'689484300'
p45
sS'bvb09'
p46
S'604588667'
p47
sS'chelseafc'
p48
S'244309106'
p49
sS'marcelotwelve'
p50
S'176702683'
p51
sS'pumafootball'
p52
S'336825949'
p53
sS'talksport'
p54
S'43527205'
p55
sS'squawkafootball'
p56
S'432863333'
p57
sS'adidasfootball'
p58
S'640806256'
p59
sS'davidbeckham'
p60
S'186904952'
p61
sS'acffiorentina'
p62
S'20693711'
p63
sS'bestoffootball'
p64
S'252687908'
p65
sS'ikercasillasoficial'
p66
S'239684951'
p67
sS'liverpoolfc'
p68
S'187102427'
p69
sS'cristiano'
p70
S'173560420'
p71
sS'kaka'
p72
S'6643170'
p73
sS'espnfc'
p74
S'1127617482'
p75
sS'yallakoraofficial'
p76
S'1527245253'
p77
sS'davidluiz_4'
p78
S'175975796'
p79
sS'manchesterunited'
p80
S'491527077'
p81
sS'visubal'
p82
S'318851835'
p83
sS'andresiniesta8'
p84
S'496865116'
p85
sS'psg'
p86
S'232024162'
p87
sS'mosalah22'
p88
S'524226044'
p89
sS'arsenal'
p90
S'264856197'
p91
sS'101greatgoals'
p92
S'503572313'
p93
sS'realmadrid'
p94
S'290023231'
p95
sS'jamesrodriguez10'
p96
S'188222091'
p97
sS'waynerooney'
p98
S'1094164909'
p99
sS'fcbayern'
p100
S'378496191'
p101
sS'luissuarez9'
p102
S'1470414259'
p103
sS'futbol_evolution'
p104
S'1681222854'
p105
sS'hazardeden_10'
p106
S'566276178'
p107
sS'8fact_football'
p108
S'1277086758'
p109
sS'm10_official'
p110
S'299374274'
p111
sS'thierryhenry'
p112
S'1564415211'
p113
sS'acmilan'
p114
S'224658467'
p115
sS'alexis_officia1'
p116
S'242520744'
p117
sS'inter'
p118
S'627042080'
p119
sS'premierleague'
p120
S'208502444'
p121
sS'neymarjr'
p122
S'26669533'
p123
sS'mcfcofficial'
p124
S'5880761'
p125
sS'iamzlatanibrahimovic'
p126
S'637874562'
p127
sS'fcbarcelona'
p128
S'260375673'
p129
sS'kooora'
p130
S'222338152'
p131
sS'laliga'
p132
S'591417230'
p133
sS'juventus'
p134
S'194317179'
p135
sS'nikefootball'
p136
S'23678829'
p137
sS'andreapirlo21'
p138
S'2095800983'
p139
sS'433'
p140
S'253625977'
p141
sS'officialfootballmemes'
p142
S'186656490'
p143
sS'ronaldolima'
p144
S'5749522'
p145
sa(dp146
g2
S'http://scontent.cdninstagram.com/hphotos-xpf1/t51.2885-19/s150x150/12338548_912361568819479_1529113934_a.jpg'
p147
sg4
S'http://scontent.cdninstagram.com/hphotos-ash/t51.2885-19/10561040_1444338759186081_1147695133_a.jpg'
p148
sg6
S'http://scontent.cdninstagram.com/hphotos-xfp1/t51.2885-19/s150x150/11429263_1457430877910429_706688236_a.jpg'
p149
sg8
S'http://scontent.cdninstagram.com/hphotos-xpa1/t51.2885-19/s150x150/11875587_889646811106241_808049907_a.jpg'
p150
sg10
S'http://scontent.cdninstagram.com/hphotos-xpt1/t51.2885-19/s150x150/12142364_820097801422194_1708788075_a.jpg'
p151
sg12
S'http://scontent.cdninstagram.com/hphotos-xtp1/t51.2885-19/s150x150/12357418_455001141355209_176677197_a.jpg'
p152
sg14
S'http://scontent.cdninstagram.com/hphotos-xft1/t51.2885-19/928834_1612422195638747_774990253_a.jpg'
p153
sg16
S'http://scontent.cdninstagram.com/hphotos-xap1/t51.2885-19/s150x150/11809956_482715925236575_1097693310_a.jpg'
p154
sg18
S'http://scontent.cdninstagram.com/hphotos-xat1/t51.2885-19/s150x150/12357342_447410422136633_86276811_a.jpg'
p155
sg20
S'http://scontent.cdninstagram.com/hphotos-xtf1/t51.2885-19/11849785_1014751161869136_424280441_a.jpg'
p156
sg22
S'http://scontent.cdninstagram.com/hphotos-xaf1/t51.2885-19/10369471_258196457719687_2063042356_a.jpg'
p157
sg24
S'http://scontent.cdninstagram.com/hphotos-xfa1/t51.2885-19/s150x150/12357682_154409544920479_1791096293_a.jpg'
p158
sg26
S'http://scontent.cdninstagram.com/hphotos-xtf1/t51.2885-19/11374627_416190928582643_995636312_a.jpg'
p159
sg28
S'http://scontent.cdninstagram.com/hphotos-xat1/t51.2885-19/s150x150/11373809_940167092710423_1168010940_a.jpg'
p160
sg30
S'http://scontent.cdninstagram.com/hphotos-xfa1/t51.2885-19/1724111_1472409266379753_945055454_a.jpg'
p161
sg32
S'http://scontent.cdninstagram.com/hphotos-xta1/t51.2885-19/s150x150/11201563_717311168375502_834838001_a.jpg'
p162
sg34
S'http://scontent.cdninstagram.com/hphotos-xfp1/t51.2885-19/11007774_1536581459942220_1805348113_a.jpg'
p163
sg36
S'http://scontent.cdninstagram.com/hphotos-xfa1/t51.2885-19/s150x150/12224076_772432849535300_1567541162_a.jpg'
p164
sg38
S'http://scontent.cdninstagram.com/hphotos-ash/t51.2885-19/10748295_498221980314702_872700182_a.jpg'
p165
sg40
S'http://scontent.cdninstagram.com/hphotos-xat1/t51.2885-19/s150x150/12106117_1474910039483829_1774392945_a.jpg'
p166
sg42
S'http://scontent.cdninstagram.com/hphotos-xpt1/t51.2885-19/11280335_836430683078964_1159806735_a.jpg'
p167
sg44
S'http://scontent.cdninstagram.com/hphotos-xta1/t51.2885-19/s150x150/11899740_1468085736834698_918176819_a.jpg'
p168
sg46
S'http://scontent.cdninstagram.com/hphotos-xaf1/t51.2885-19/s150x150/12237042_997653080276740_333487957_a.jpg'
p169
sg48
S'http://scontent.cdninstagram.com/hphotos-xpt1/t51.2885-19/928036_338918186261801_827981516_a.jpg'
p170
sg50
S'http://scontent.cdninstagram.com/hphotos-xpt1/t51.2885-19/s150x150/12277438_925264560897717_990512117_a.jpg'
p171
sg52
S'http://scontent.cdninstagram.com/hphotos-xta1/t51.2885-19/s150x150/11201561_437572826448003_168906336_a.jpg'
p172
sg54
S'http://scontent.cdninstagram.com/hphotos-xfp1/t51.2885-19/11906322_110278722660664_1367492268_a.jpg'
p173
sg56
S'http://scontent.cdninstagram.com/hphotos-xpa1/t51.2885-19/11326187_518562561625080_389199668_a.jpg'
p174
sg58
S'http://scontent.cdninstagram.com/hphotos-xfp1/t51.2885-19/s150x150/12292669_501885696655864_37173683_a.jpg'
p175
sg60
S'http://scontent.cdninstagram.com/hphotos-xpa1/t51.2885-19/s150x150/11848873_416913721845060_1906915195_a.jpg'
p176
sg62
S'http://scontent.cdninstagram.com/hphotos-xtf1/t51.2885-19/11251647_1641787342768143_167389071_a.jpg'
p177
sg64
S'http://scontent.cdninstagram.com/hphotos-xat1/t51.2885-19/11202980_483752078462709_1886115453_a.jpg'
p178
sg66
S'http://scontent.cdninstagram.com/hphotos-xfp1/t51.2885-19/s150x150/10009412_1505136203114959_384420951_a.jpg'
p179
sg68
S'http://scontent.cdninstagram.com/hphotos-xat1/t51.2885-19/s150x150/11371157_1622328164654549_588778636_a.jpg'
p180
sg70
S'http://scontent.cdninstagram.com/hphotos-xta1/t51.2885-19/s150x150/12142426_533800500100588_2143499856_a.jpg'
p181
sg72
S'http://scontent.cdninstagram.com/hphotos-xtf1/t51.2885-19/s150x150/11849161_688429311290934_448858607_a.jpg'
p182
sg74
S'http://scontent.cdninstagram.com/hphotos-xpt1/t51.2885-19/11385624_1150587951623694_1753942919_a.jpg'
p183
sg76
S'http://scontent.cdninstagram.com/hphotos-xpa1/t51.2885-19/10724906_288582874663820_254029323_a.jpg'
p184
sg78
S'http://scontent.cdninstagram.com/hphotos-xfa1/t51.2885-19/s150x150/11249050_982632541783320_689073789_a.jpg'
p185
sg80
S'http://scontent.cdninstagram.com/hphotos-xtf1/t51.2885-19/s150x150/12237317_133858306975320_2018659904_a.jpg'
p186
sg82
S'http://scontent.cdninstagram.com/hphotos-xft1/t51.2885-19/11875342_456870941163897_268129809_a.jpg'
p187
sg84
S'http://scontent.cdninstagram.com/hphotos-xft1/t51.2885-19/11809882_1612872405642477_1747600036_a.jpg'
p188
sg86
S'http://scontent.cdninstagram.com/hphotos-xft1/t51.2885-19/11820463_159544081045294_280734921_a.jpg'
p189
sg88
S'http://scontent.cdninstagram.com/hphotos-xpt1/t51.2885-19/s150x150/12394116_165755167119850_1182793253_a.jpg'
p190
sg90
S'http://scontent.cdninstagram.com/hphotos-xat1/t51.2885-19/11373734_1471658766462677_2101704960_a.jpg'
p191
sg92
S'http://scontent.cdninstagram.com/hphotos-frc/t51.2885-19/10358244_261147987402028_2144280247_a.jpg'
p192
sg94
S'http://scontent.cdninstagram.com/hphotos-xft1/l/t51.2885-19/11357791_409776515861525_1206530930_a.jpg'
p193
sg96
S'http://scontent.cdninstagram.com/hphotos-xaf1/t51.2885-19/s150x150/11910500_482384475263692_1508161493_a.jpg'
p194
sg98
S'http://scontent.cdninstagram.com/hphotos-xap1/t51.2885-19/10598671_616418655138657_356433261_a.jpg'
p195
sg100
S'http://scontent.cdninstagram.com/hphotos-xpt1/t51.2885-19/s150x150/12142211_1639325286333072_1164011167_a.jpg'
p196
sg102
S'http://scontent.cdninstagram.com/hphotos-frc/t51.2885-19/10601972_481691058600695_2107452796_a.jpg'
p197
sg104
S'http://scontent.cdninstagram.com/hphotos-xft1/t51.2885-19/11906329_960233084022564_1448528159_a.jpg'
p198
sg106
S'http://scontent.cdninstagram.com/hphotos-xat1/t51.2885-19/11351711_456177361219932_1865677376_a.jpg'
p199
sg108
S'http://scontent.cdninstagram.com/hphotos-xft1/t51.2885-19/s150x150/11849918_1641434692762091_1268796633_a.jpg'
p200
sg110
S'http://scontent.cdninstagram.com/hphotos-xpa1/t51.2885-19/s150x150/12356514_183568615328139_96960035_a.jpg'
p201
sg112
S'http://scontent.cdninstagram.com/hphotos-ash/t51.2885-19/10802891_723632904371624_1110919609_a.jpg'
p202
sg114
S'http://scontent.cdninstagram.com/hphotos-xat1/t51.2885-19/11850035_106992939653644_490122205_a.jpg'
p203
sg116
S'http://scontent.cdninstagram.com/hphotos-xap1/t51.2885-19/10919314_783825011683327_410041514_a.jpg'
p204
sg118
S'http://scontent.cdninstagram.com/hphotos-xpa1/t51.2885-19/1389021_312157355622707_1215027632_a.jpg'
p205
sg120
S'http://scontent.cdninstagram.com/hphotos-xpt1/t51.2885-19/11849779_110442739310035_444364787_a.jpg'
p206
sg122
S'http://scontent.cdninstagram.com/hphotos-xfp1/t51.2885-19/s150x150/12357275_1534635486854280_1130087536_a.jpg'
p207
sg124
S'http://scontent.cdninstagram.com/hphotos-xft1/t51.2885-19/924619_635119903261053_339304977_a.jpg'
p208
sg126
S'http://scontent.cdninstagram.com/hphotos-xtf1/t51.2885-19/11376212_857435317679026_232491845_a.jpg'
p209
sg128
S'http://scontent.cdninstagram.com/hphotos-xpf1/t51.2885-19/11906354_1687517011461506_447168798_a.jpg'
p210
sg130
S'http://scontent.cdninstagram.com/hphotos-frc/t51.2885-19/10735172_1481319065482890_919838917_a.jpg'
p211
sg132
S'http://scontent.cdninstagram.com/hphotos-xat1/t51.2885-19/12081135_712518882225954_1906769823_a.jpg'
p212
sg134
S'http://scontent.cdninstagram.com/hphotos-xpa1/t51.2885-19/1171217_359746224191514_373940309_a.jpg'
p213
sg136
S'http://scontent.cdninstagram.com/hphotos-xtf1/t51.2885-19/s150x150/12269804_1654390701510424_283478642_a.jpg'
p214
sg138
S'http://scontent.cdninstagram.com/hphotos-xta1/t51.2885-19/11376239_1598990140373135_796754734_a.jpg'
p215
sg140
S'http://scontent.cdninstagram.com/hphotos-xtf1/t51.2885-19/s150x150/11254184_161503297519316_1896263392_a.jpg'
p216
sg142
S'http://scontent.cdninstagram.com/hphotos-xtf1/t51.2885-19/s150x150/11849176_909104305836040_1729559313_a.jpg'
p217
sg144
S'http://scontent.cdninstagram.com/hphotos-xfp1/t51.2885-19/s150x150/12338874_718204134978694_1286946256_a.jpg'
p218
sa.