(dp0
S'8factfootball'
p1
(dp2
S'image'
p3
S'http://photos-b.ak.instagram.com/hphotos-ak-xaf1/t51.2885-19/11093105_479876612160297_2055280891_a.jpg'
p4
sS'id'
p5
S'308772287'
p6
ssS'officialasroma'
p7
(dp8
g3
S'http://photos-b.ak.instagram.com/hphotos-ak-ash/t51.2885-19/10561040_1444338759186081_1147695133_a.jpg'
p9
sg5
S'1428837659'
p10
ssS'robgunillustration'
p11
(dp12
g3
S'http://photos-f.ak.instagram.com/hphotos-ak-xft1/t51.2885-19/s150x150/11429263_1457430877910429_706688236_a.jpg'
p13
sg5
S'390209727'
p14
ssS'toni.kr8s'
p15
(dp16
g3
S'http://photos-b.ak.instagram.com/hphotos-ak-xpf1/t51.2885-19/s150x150/11875587_889646811106241_808049907_a.jpg'
p17
sg5
S'1635861286'
p18
ssS'didierdrogba'
p19
(dp20
g3
S'http://photos-c.ak.instagram.com/hphotos-ak-xpt1/t51.2885-19/s150x150/12142364_820097801422194_1708788075_a.jpg'
p21
sg5
S'256358723'
p22
ssS'garethbale11'
p23
(dp24
g3
S'http://photos-f.ak.instagram.com/hphotos-ak-xpa1/t51.2885-19/s150x150/12106190_1635571710052221_970771599_a.jpg'
p25
sg5
S'246194371'
p26
ssS'zidane'
p27
(dp28
g3
S'http://photos-c.ak.instagram.com/hphotos-ak-xfa1/t51.2885-19/11123805_743287732457906_847873097_a.jpg'
p29
sg5
S'345813631'
p30
ssS'stevengerrard'
p31
(dp32
g3
S'http://photos-h.ak.instagram.com/hphotos-ak-xap1/t51.2885-19/s150x150/11809956_482715925236575_1097693310_a.jpg'
p33
sg5
S'1345521821'
p34
ssS'mb459'
p35
(dp36
g3
S'http://photos-h.ak.instagram.com/hphotos-ak-xpt1/t51.2885-19/s150x150/11875600_528931000593295_1665491946_a.jpg'
p37
sg5
S'1246537958'
p38
ssS'instareplays'
p39
(dp40
g3
S'http://photos-a.ak.instagram.com/hphotos-ak-xtf1/t51.2885-19/11849785_1014751161869136_424280441_a.jpg'
p41
sg5
S'975441532'
p42
ssS'filgoal1'
p43
(dp44
g3
S'http://photos-h.ak.instagram.com/hphotos-ak-xaf1/t51.2885-19/10369471_258196457719687_2063042356_a.jpg'
p45
sg5
S'568948193'
p46
ssS'footballtransfersdaily'
p47
(dp48
g3
S'http://photos-d.ak.instagram.com/hphotos-ak-xfp1/t51.2885-19/s150x150/10953099_1495728137423011_830837154_a.jpg'
p49
sg5
S'1427535452'
p50
ssS'leomessi'
p51
(dp52
g3
S'http://photos-d.ak.instagram.com/hphotos-ak-xtf1/t51.2885-19/11374627_416190928582643_995636312_a.jpg'
p53
sg5
S'427553890'
p54
ssS'footbalita'
p55
(dp56
g3
S'http://photos-e.ak.instagram.com/hphotos-ak-xtp1/t51.2885-19/s150x150/11934822_1475277429467964_2001129083_a.jpg'
p57
sg5
S'1988188314'
p58
ssS'soccermemes'
p59
(dp60
g3
S'http://photos-h.ak.instagram.com/hphotos-ak-xat1/t51.2885-19/s150x150/11373809_940167092710423_1168010940_a.jpg'
p61
sg5
S'40243296'
p62
ssS'beinsports'
p63
(dp64
g3
S'http://photos-g.ak.instagram.com/hphotos-ak-prn/t51.2885-19/10735209_1515387672051782_1176483204_a.jpg'
p65
sg5
S'943070069'
p66
ssS'we_love_football'
p67
(dp68
g3
S'http://photos-g.ak.instagram.com/hphotos-ak-xta1/t51.2885-19/s150x150/11201563_717311168375502_834838001_a.jpg'
p69
sg5
S'225021109'
p70
ssS'golazoweekly'
p71
(dp72
g3
S'http://photos-e.ak.instagram.com/hphotos-ak-xpf1/t51.2885-19/11007774_1536581459942220_1805348113_a.jpg'
p73
sg5
S'1311129049'
p74
ssS'manuelneuer'
p75
(dp76
g3
S'http://photos-g.ak.instagram.com/hphotos-ak-xat1/t51.2885-19/10684310_1569268273358606_1060106842_a.jpg'
p77
sg5
S'1732670974'
p78
ssS'6secfootball'
p79
(dp80
g3
S'http://photos-g.ak.instagram.com/hphotos-ak-ash/t51.2885-19/10748295_498221980314702_872700182_a.jpg'
p81
sg5
S'1566821036'
p82
ssS'kingarturo23oficial'
p83
(dp84
g3
S'http://photos-f.ak.instagram.com/hphotos-ak-xaf1/t51.2885-19/s150x150/12106117_1474910039483829_1774392945_a.jpg'
p85
sg5
S'2110611464'
p86
ssS'football.news'
p87
(dp88
g3
S'http://photos-e.ak.instagram.com/hphotos-ak-xpt1/t51.2885-19/11280335_836430683078964_1159806735_a.jpg'
p89
sg5
S'1905717906'
p90
ssS'futbolsport'
p91
(dp92
g3
S'http://photos-c.ak.instagram.com/hphotos-ak-xpf1/t51.2885-19/s150x150/11899740_1468085736834698_918176819_a.jpg'
p93
sg5
S'689484300'
p94
ssS'bvb09'
p95
(dp96
g3
S'http://photos-e.ak.instagram.com/hphotos-ak-xfp1/t51.2885-19/s150x150/11906396_655642567909700_448626305_a.jpg'
p97
sg5
S'604588667'
p98
ssS'chelseafc'
p99
(dp100
g3
S'http://photos-b.ak.instagram.com/hphotos-ak-xpt1/t51.2885-19/928036_338918186261801_827981516_a.jpg'
p101
sg5
S'244309106'
p102
ssS'marcelotwelve'
p103
(dp104
g3
S'http://photos-h.ak.instagram.com/hphotos-ak-xft1/t51.2885-19/s150x150/11264549_864309386994663_1782609950_a.jpg'
p105
sg5
S'176702683'
p106
ssS'pumafootball'
p107
(dp108
g3
S'http://photos-d.ak.instagram.com/hphotos-ak-xta1/t51.2885-19/s150x150/11201561_437572826448003_168906336_a.jpg'
p109
sg5
S'336825949'
p110
ssS'talksport'
p111
(dp112
g3
S'http://photos-a.ak.instagram.com/hphotos-ak-xpf1/t51.2885-19/11906322_110278722660664_1367492268_a.jpg'
p113
sg5
S'43527205'
p114
ssS'squawkafootball'
p115
(dp116
g3
S'http://photos-a.ak.instagram.com/hphotos-ak-xpa1/t51.2885-19/11326187_518562561625080_389199668_a.jpg'
p117
sg5
S'432863333'
p118
ssS'worldgoalz'
p119
(dp120
g3
S'http://photos-g.ak.instagram.com/hphotos-ak-xfa1/t51.2885-19/11098338_813937238675574_371735687_a.jpg'
p121
sg5
S'1386499593'
p122
ssS'adidasfootball'
p123
(dp124
g3
S'http://photos-a.ak.instagram.com/hphotos-ak-xat1/t51.2885-19/s150x150/12135471_781854151925472_1082764464_a.jpg'
p125
sg5
S'640806256'
p126
ssS'davidbeckham'
p127
(dp128
g3
S'http://photos-c.ak.instagram.com/hphotos-ak-xft1/t51.2885-19/11376259_1835282250030986_381858585_a.jpg'
p129
sg5
S'186904952'
p130
ssS'acffiorentina'
p131
(dp132
g3
S'http://photos-h.ak.instagram.com/hphotos-ak-xtp1/t51.2885-19/11251647_1641787342768143_167389071_a.jpg'
p133
sg5
S'20693711'
p134
ssS'bestoffootball'
p135
(dp136
g3
S'http://photos-f.ak.instagram.com/hphotos-ak-xat1/t51.2885-19/11202980_483752078462709_1886115453_a.jpg'
p137
sg5
S'252687908'
p138
ssS'ikercasillasoficial'
p139
(dp140
g3
S'http://photos-a.ak.instagram.com/hphotos-ak-xap1/t51.2885-19/s150x150/12135469_966905550023112_122100522_a.jpg'
p141
sg5
S'239684951'
p142
ssS'liverpoolfc'
p143
(dp144
g3
S'http://photos-f.ak.instagram.com/hphotos-ak-xfa1/t51.2885-19/s150x150/11371157_1622328164654549_588778636_a.jpg'
p145
sg5
S'187102427'
p146
ssS'cristiano'
p147
(dp148
g3
S'http://photos-e.ak.instagram.com/hphotos-ak-xpa1/t51.2885-19/s150x150/12142426_533800500100588_2143499856_a.jpg'
p149
sg5
S'173560420'
p150
ssS'kaka'
p151
(dp152
g3
S'http://photos-g.ak.instagram.com/hphotos-ak-xtf1/t51.2885-19/s150x150/11849161_688429311290934_448858607_a.jpg'
p153
sg5
S'6643170'
p154
ssS'espnfc'
p155
(dp156
g3
S'http://photos-g.ak.instagram.com/hphotos-ak-xft1/t51.2885-19/11385624_1150587951623694_1753942919_a.jpg'
p157
sg5
S'1127617482'
p158
ssS'yallakoraofficial'
p159
(dp160
g3
S'http://photos-e.ak.instagram.com/hphotos-ak-xpa1/t51.2885-19/10724906_288582874663820_254029323_a.jpg'
p161
sg5
S'1527245253'
p162
ssS'davidluiz_4'
p163
(dp164
g3
S'http://photos-a.ak.instagram.com/hphotos-ak-xap1/t51.2885-19/s150x150/11249050_982632541783320_689073789_a.jpg'
p165
sg5
S'175975796'
p166
ssS'manchesterunited'
p167
(dp168
g3
S'http://photos-b.ak.instagram.com/hphotos-ak-xtp1/t51.2885-19/s150x150/12224274_557624457746473_1170116308_a.jpg'
p169
sg5
S'491527077'
p170
ssS'visubal'
p171
(dp172
g3
S'http://photos-b.ak.instagram.com/hphotos-ak-xfp1/t51.2885-19/11875342_456870941163897_268129809_a.jpg'
p173
sg5
S'318851835'
p174
ssS'andresiniesta8'
p175
(dp176
g3
S'http://photos-f.ak.instagram.com/hphotos-ak-xft1/t51.2885-19/11809882_1612872405642477_1747600036_a.jpg'
p177
sg5
S'496865116'
p178
ssS'psg'
p179
(dp180
g3
S'http://photos-g.ak.instagram.com/hphotos-ak-xft1/t51.2885-19/11820463_159544081045294_280734921_a.jpg'
p181
sg5
S'232024162'
p182
ssS'mosalah22'
p183
(dp184
g3
S'http://photos-d.ak.instagram.com/hphotos-ak-xtp1/t51.2885-19/s150x150/11950471_1006675399376259_1501403908_a.jpg'
p185
sg5
S'639211882'
p186
ssS'arsenal'
p187
(dp188
g3
S'http://photos-f.ak.instagram.com/hphotos-ak-xat1/t51.2885-19/11373734_1471658766462677_2101704960_a.jpg'
p189
sg5
S'264856197'
p190
ssS'101greatgoals'
p191
(dp192
g3
S'http://photos-e.ak.instagram.com/hphotos-ak-frc/t51.2885-19/10358244_261147987402028_2144280247_a.jpg'
p193
sg5
S'503572313'
p194
ssS'realmadrid'
p195
(dp196
g3
S'http://photos-f.ak.instagram.com/hphotos-ak-xft1/t51.2885-19/11357791_409776515861525_1206530930_a.jpg'
p197
sg5
S'290023231'
p198
ssS'jamesrodriguez10'
p199
(dp200
g3
S'http://photos-e.ak.instagram.com/hphotos-ak-xpf1/t51.2885-19/s150x150/11910500_482384475263692_1508161493_a.jpg'
p201
sg5
S'188222091'
p202
ssS'waynerooney'
p203
(dp204
g3
S'http://photos-b.ak.instagram.com/hphotos-ak-xpa1/t51.2885-19/10598671_616418655138657_356433261_a.jpg'
p205
sg5
S'1094164909'
p206
ssS'fcbayern'
p207
(dp208
g3
S'http://photos-a.ak.instagram.com/hphotos-ak-xap1/t51.2885-19/s150x150/12142211_1639325286333072_1164011167_a.jpg'
p209
sg5
S'378496191'
p210
ssS'luissuarez9'
p211
(dp212
g3
S'http://photos-h.ak.instagram.com/hphotos-ak-frc/t51.2885-19/10601972_481691058600695_2107452796_a.jpg'
p213
sg5
S'1470414259'
p214
ssS'futbol_evolution'
p215
(dp216
g3
S'http://photos-f.ak.instagram.com/hphotos-ak-xta1/t51.2885-19/s150x150/11356910_505407389628893_838635825_a.jpg'
p217
sg5
S'1982906563'
p218
ssS'hazardeden_10'
p219
(dp220
g3
S'http://photos-e.ak.instagram.com/hphotos-ak-xft1/t51.2885-19/11351711_456177361219932_1865677376_a.jpg'
p221
sg5
S'566276178'
p222
ssS'8fact_football'
p223
(dp224
g3
S'http://photos-d.ak.instagram.com/hphotos-ak-xft1/t51.2885-19/s150x150/11849918_1641434692762091_1268796633_a.jpg'
p225
sg5
S'1277086758'
p226
ssS'm10_official'
p227
(dp228
g3
S'http://photos-h.ak.instagram.com/hphotos-ak-xta1/t51.2885-19/11111466_928531887190991_1033568242_a.jpg'
p229
sg5
S'299374274'
p230
ssS'thierryhenry'
p231
(dp232
g3
S'http://photos-a.ak.instagram.com/hphotos-ak-ash/t51.2885-19/10802891_723632904371624_1110919609_a.jpg'
p233
sg5
S'1564415211'
p234
ssS'acmilan'
p235
(dp236
g3
S'http://photos-e.ak.instagram.com/hphotos-ak-xtf1/t51.2885-19/11850035_106992939653644_490122205_a.jpg'
p237
sg5
S'224658467'
p238
ssS'alexis_officia1'
p239
(dp240
g3
S'http://photos-h.ak.instagram.com/hphotos-ak-xap1/t51.2885-19/10919314_783825011683327_410041514_a.jpg'
p241
sg5
S'242520744'
p242
ssS'inter'
p243
(dp244
g3
S'http://photos-d.ak.instagram.com/hphotos-ak-xfa1/t51.2885-19/11201523_1018981428142827_420869574_a.jpg'
p245
sg5
S'11711285'
p246
ssS'premierleague'
p247
(dp248
g3
S'http://photos-d.ak.instagram.com/hphotos-ak-xfp1/t51.2885-19/11849779_110442739310035_444364787_a.jpg'
p249
sg5
S'208502444'
p250
ssS'neymarjr'
p251
(dp252
g3
S'http://photos-d.ak.instagram.com/hphotos-ak-xpt1/t51.2885-19/s150x150/12080649_1050177258347883_1967728371_a.jpg'
p253
sg5
S'26669533'
p254
ssS'footykix'
p255
(dp256
g3
S'http://photos-d.ak.instagram.com/hphotos-ak-xpf1/t51.2885-19/s150x150/11881716_912724755467059_2125999913_a.jpg'
p257
sg5
S'386853332'
p258
ssS'mcfcofficial'
p259
(dp260
g3
S'http://photos-f.ak.instagram.com/hphotos-ak-xpt1/t51.2885-19/924619_635119903261053_339304977_a.jpg'
p261
sg5
S'5880761'
p262
ssS'iamzlatanibrahimovic'
p263
(dp264
g3
S'http://photos-c.ak.instagram.com/hphotos-ak-xat1/t51.2885-19/11376212_857435317679026_232491845_a.jpg'
p265
sg5
S'637874562'
p266
ssS'fcbarcelona'
p267
(dp268
g3
S'http://photos-c.ak.instagram.com/hphotos-ak-xpf1/t51.2885-19/11906354_1687517011461506_447168798_a.jpg'
p269
sg5
S'260375673'
p270
ssS'kooora'
p271
(dp272
g3
S'http://photos-b.ak.instagram.com/hphotos-ak-xap1/t51.2885-19/10832121_842318082518321_75761931_a.jpg'
p273
sg5
S'474487306'
p274
ssS'laliga'
p275
(dp276
g3
S'http://photos-c.ak.instagram.com/hphotos-ak-xta1/t51.2885-19/12081135_712518882225954_1906769823_a.jpg'
p277
sg5
S'591417230'
p278
ssS'juventus'
p279
(dp280
g3
S'http://photos-c.ak.instagram.com/hphotos-ak-xpa1/t51.2885-19/1171217_359746224191514_373940309_a.jpg'
p281
sg5
S'194317179'
p282
ssS'nikefootball'
p283
(dp284
g3
S'http://photos-f.ak.instagram.com/hphotos-ak-xpt1/t51.2885-19/s150x150/12081195_1665930570329101_995147101_a.jpg'
p285
sg5
S'23678829'
p286
ssS'andreapirlo21'
p287
(dp288
g3
S'http://photos-h.ak.instagram.com/hphotos-ak-xta1/t51.2885-19/11376239_1598990140373135_796754734_a.jpg'
p289
sg5
S'2095800983'
p290
ssS'433'
p291
(dp292
g3
S'http://photos-c.ak.instagram.com/hphotos-ak-ash/t51.2885-19/10852892_844701575580514_737161117_a.jpg'
p293
sg5
S'1570223851'
p294
ssS'officialfootballmemes'
p295
(dp296
g3
S'http://photos-a.ak.instagram.com/hphotos-ak-xtf1/t51.2885-19/s150x150/11849176_909104305836040_1729559313_a.jpg'
p297
sg5
S'186656490'
p298
ssS'ronaldolima'
p299
(dp300
g3
S'http://photos-g.ak.instagram.com/hphotos-ak-prn/t51.2885-19/10755941_620768848041086_1003829683_a.jpg'
p301
sg5
S'5749522'
p302
ss.